Certificate:
    Data:
        Version: 3 (0x2)
        Serial Number: 1 (0x1)
    Signature Algorithm: sha256WithRSAEncryption
        Issuer: C=CN, ST=Beijing, L=Beijing, O=InternalCA, OU=CA Dept, CN=InternalRootCA
        Validity
            Not Before: Nov 20 09:57:55 2025 GMT
            Not After : Nov 20 09:57:55 2026 GMT
        Subject: C=CN, ST=Beijing, L=Beijing, O=TestOrg, OU=TestDept, CN=localhost
        Subject Public Key Info:
            Public Key Algorithm: rsaEncryption
                Public-Key: (2048 bit)
                Modulus:
                    00:c4:2d:b4:74:b9:a2:63:60:e4:f0:b2:cf:3a:d0:
                    e0:a2:2c:b3:31:52:2f:29:56:b0:a3:f3:4d:0f:4b:
                    13:a8:db:73:1a:8e:1f:55:b5:0c:a3:cb:cd:3a:52:
                    be:04:c9:97:72:a5:0d:7e:54:19:4f:07:8c:da:96:
                    fe:79:e9:43:dd:0a:61:9a:a1:ac:5a:a1:de:1c:cb:
                    05:5c:c1:7c:44:e4:90:88:52:78:9f:8f:01:1b:a1:
                    18:64:f3:9e:0e:36:8d:09:ae:7a:7c:a3:40:15:7c:
                    33:9e:cd:37:73:08:57:30:c3:04:43:f6:a0:68:74:
                    a4:4e:99:85:26:52:e6:3a:e0:83:14:44:fb:ee:65:
                    d2:f6:fc:ef:8b:3d:bb:1e:3d:07:d7:f7:85:46:e6:
                    a6:b4:5b:24:b1:75:9c:32:11:f8:3d:e4:fe:33:0b:
                    7c:a5:33:d6:94:d9:44:15:33:76:83:71:4e:ee:a3:
                    cc:74:98:01:cd:4e:40:49:32:88:7a:e9:48:40:b9:
                    f4:c3:62:15:81:fe:14:4a:b5:0e:e8:f6:5e:13:6e:
                    0b:4b:dd:c5:f2:f7:19:59:18:13:50:d4:79:fb:49:
                    6b:56:76:b9:4f:85:00:05:fe:65:a3:5c:3d:23:57:
                    9b:43:a7:da:c8:e2:be:06:4e:07:73:0e:2a:aa:00:
                    04:81
                Exponent: 65537 (0x10001)
        X509v3 extensions:
            X509v3 Subject Alternative Name: 
                DNS:server.your-internal.com, DNS:localhost, IP Address:192.168.1.100, IP Address:127.0.0.1
            X509v3 Key Usage: 
                Digital Signature, Key Encipherment
            X509v3 Extended Key Usage: 
                TLS Web Server Authentication
            X509v3 Basic Constraints: 
                CA:FALSE
            X509v3 Subject Key Identifier: 
                DC:C1:A7:D5:F1:E4:ED:D9:97:8B:1D:D0:6B:31:C2:0C:40:DF:B7:C4
            X509v3 Authority Key Identifier: 
                keyid:4A:54:F0:76:93:29:F6:9C:18:BA:A3:F6:03:AB:3B:28:42:D8:F2:E2
                DirName:/C=CN/ST=Beijing/L=Beijing/O=InternalCA/OU=CA Dept/CN=InternalRootCA
                serial:BD:88:94:5A:D3:F7:48:33

    Signature Algorithm: sha256WithRSAEncryption
         7b:f0:6d:3d:1e:f6:f7:9a:07:8a:9a:59:68:40:e1:ad:d5:38:
         4f:19:ec:f3:1a:d2:0c:06:13:9a:ee:dc:14:47:41:91:d4:3a:
         da:9d:25:5f:25:3e:d7:45:e0:a0:f9:86:11:61:a4:cf:1e:09:
         be:a7:11:22:ce:c7:3f:30:a1:2f:9e:db:d8:f5:43:10:da:6f:
         f6:74:52:e0:8c:a6:7c:fe:5e:00:ff:a3:cc:25:c5:3e:23:0f:
         42:47:01:cb:1c:66:7c:1e:03:68:8b:27:58:e3:00:6a:c6:c7:
         06:5a:9d:5e:a6:67:c0:ec:30:b9:f7:44:4a:43:ae:a0:f3:cf:
         03:65:de:2f:fe:37:7c:f5:3a:9a:93:f3:56:0e:5f:af:53:34:
         26:27:76:f2:c6:7c:17:c9:c5:02:38:1a:d2:a3:30:ee:b0:e7:
         a6:83:f8:6d:cb:9c:7b:5e:a4:e1:1e:7f:49:bd:91:2f:60:71:
         00:66:77:46:37:d8:ad:19:bc:4f:36:07:da:3a:58:d4:a5:f4:
         ca:71:6b:e4:5e:d0:12:28:93:f8:61:a8:d2:bb:69:f5:32:94:
         0f:36:8f:38:bf:b8:44:37:59:34:31:00:50:52:be:2b:6f:18:
         80:58:32:8d:65:ff:97:08:fa:62:f4:2d:cc:e4:97:b9:7b:21:
         97:27:c8:46:d3:e2:1b:aa:6d:5f:25:2b:2b:dc:62:d1:06:4f:
         c4:35:3f:b0:40:39:3a:6a:ab:76:2e:27:e8:ba:b4:67:d5:d3:
         99:c5:f0:f9:2f:03:6d:ef:9f:6e:ac:23:6a:04:81:19:38:3d:
         1a:90:cc:d9:fa:30:b5:11:9f:8b:7a:57:f3:9c:07:7b:25:2b:
         87:e5:e0:4f:99:11:8b:69:6b:01:a2:ae:81:d9:1a:3b:8a:5a:
         cc:a7:23:6d:ef:bb:c8:20:81:9c:2e:93:5b:91:77:31:73:57:
         3b:ec:90:ac:d7:fd:12:f9:1b:fe:b2:3b:db:ca:8e:40:e3:48:
         8e:4d:88:e8:0c:0b:39:ec:92:8a:09:e5:98:b1:a1:a6:0c:1f:
         fb:c9:59:06:dd:ba:9e:f2:f2:08:fc:db:47:93:ea:eb:5b:11:
         e1:fa:59:8a:2f:15:3e:31:f3:da:87:f1:d3:29:0f:cd:c1:c2:
         ae:c6:95:a5:35:54:81:0c:99:91:31:d6:97:3f:de:3a:ad:e7:
         e8:30:41:a9:0f:76:af:05:e4:d0:a3:5f:45:03:4c:18:c9:26:
         6d:fc:57:25:9c:87:1b:7d:ec:55:6f:32:22:92:f7:18:b6:9e:
         4a:37:c5:ad:22:4e:78:53:07:56:52:e1:4b:f1:81:e7:de:7a:
         f5:fe:41:c3:f9:9e:9a:3d
-----BEGIN CERTIFICATE-----
MIIFijCCA3KgAwIBAgIBATANBgkqhkiG9w0BAQsFADBxMQswCQYDVQQGEwJDTjEQ
MA4GA1UECAwHQmVpamluZzEQMA4GA1UEBwwHQmVpamluZzETMBEGA1UECgwKSW50
ZXJuYWxDQTEQMA4GA1UECwwHQ0EgRGVwdDEXMBUGA1UEAwwOSW50ZXJuYWxSb290
Q0EwHhcNMjUxMTIwMDk1NzU1WhcNMjYxMTIwMDk1NzU1WjBqMQswCQYDVQQGEwJD
TjEQMA4GA1UECAwHQmVpamluZzEQMA4GA1UEBwwHQmVpamluZzEQMA4GA1UECgwH
VGVzdE9yZzERMA8GA1UECwwIVGVzdERlcHQxEjAQBgNVBAMMCWxvY2FsaG9zdDCC
ASIwDQYJKoZIhvcNAQEBBQADggEPADCCAQoCggEBAMQttHS5omNg5PCyzzrQ4KIs
szFSLylWsKPzTQ9LE6jbcxqOH1W1DKPLzTpSvgTJl3KlDX5UGU8HjNqW/nnpQ90K
YZqhrFqh3hzLBVzBfETkkIhSeJ+PARuhGGTzng42jQmuenyjQBV8M57NN3MIVzDD
BEP2oGh0pE6ZhSZS5jrggxRE++5l0vb874s9ux49B9f3hUbmprRbJLF1nDIR+D3k
/jMLfKUz1pTZRBUzdoNxTu6jzHSYAc1OQEkyiHrpSEC59MNiFYH+FEq1Duj2XhNu
C0vdxfL3GVkYE1DUeftJa1Z2uU+FAAX+ZaNcPSNXm0On2sjivgZOB3MOKqoABIEC
AwEAAaOCATIwggEuMDoGA1UdEQQzMDGCGHNlcnZlci55b3VyLWludGVybmFsLmNv
bYIJbG9jYWxob3N0hwTAqAFkhwR/AAABMAsGA1UdDwQEAwIFoDATBgNVHSUEDDAK
BggrBgEFBQcDATAJBgNVHRMEAjAAMB0GA1UdDgQWBBTcwafV8eTt2ZeLHdBrMcIM
QN+3xDCBowYDVR0jBIGbMIGYgBRKVPB2kyn2nBi6o/YDqzsoQtjy4qF1pHMwcTEL
MAkGA1UEBhMCQ04xEDAOBgNVBAgMB0JlaWppbmcxEDAOBgNVBAcMB0JlaWppbmcx
EzARBgNVBAoMCkludGVybmFsQ0ExEDAOBgNVBAsMB0NBIERlcHQxFzAVBgNVBAMM
DkludGVybmFsUm9vdENBggkAvYiUWtP3SDMwDQYJKoZIhvcNAQELBQADggIBAHvw
bT0e9veaB4qaWWhA4a3VOE8Z7PMa0gwGE5ru3BRHQZHUOtqdJV8lPtdF4KD5hhFh
pM8eCb6nESLOxz8woS+e29j1QxDab/Z0UuCMpnz+XgD/o8wlxT4jD0JHAcscZnwe
A2iLJ1jjAGrGxwZanV6mZ8DsMLn3REpDrqDzzwNl3i/+N3z1OpqT81YOX69TNCYn
dvLGfBfJxQI4GtKjMO6w56aD+G3LnHtepOEef0m9kS9gcQBmd0Y32K0ZvE82B9o6
WNSl9Mpxa+Re0BIok/hhqNK7afUylA82jzi/uEQ3WTQxAFBSvitvGIBYMo1l/5cI
+mL0Lczkl7l7IZcnyEbT4huqbV8lKyvcYtEGT8Q1P7BAOTpqq3YuJ+i6tGfV05nF
8PkvA23vn26sI2oEgRk4PRqQzNn6MLURn4t6V/OcB3slK4fl4E+ZEYtpawGiroHZ
GjuKWsynI23vu8gggZwuk1uRdzFzVzvskKzX/RL5G/6yO9vKjkDjSI5NiOgMCzns
kooJ5ZixoaYMH/vJWQbdup7y8gj820eT6utbEeH6WYovFT4x89qH8dMpD83Bwq7G
laU1VIEMmZEx1pc/3jqt5+gwQakPdq8F5NCjX0UDTBjJJm38VyWchxt97FVvMiKS
9xi2nko3xa0iTnhTB1ZS4UvxgefeevX+QcP5npo9
-----END CERTIFICATE-----
